(dp1
S'output'
p2
S"<class 'sqlite3.OperationalError'> Cannot add a UNIQUE column"
p3
sS'layer'
p4
S'C:\\Python27\\web2py\\applications\\Arduino\\models\\db.py'
p5
sS'code'
p6
S'# -*- coding: utf-8 -*-\n\nimport serial\n\nSERIAIS = dict()\n\nif not request.env.web2py_runtime_gae:\n    db = DAL("sqlite://storage.sqlite")\nelse:\n    db = DAL("google:datastore+ndb")\n    session.connect(request, response, db=db)\nresponse.generic_patterns = [\'*\'] if request.is_local else []\n\nfrom gluon.tools import Auth, Service, PluginManager\nauth = Auth(db)\nservice = Service()\nplugins = PluginManager()\n# create all tables needed by auth if not custom tables\nauth.define_tables(username=False, signature=False)\n\n\nSerial = db.define_table("serial",\n\t\tField("device", "string", length=11, requires=IS_NOT_EMPTY(), notnull=True, unique=True),\n\t\tField("baud_rate", "integer", length=11, label="Baud Rate", comment=None, default=9600),\n\t\tField("timeout", "integer", length=11, label="Timeout", comment=None, default=1),\n\t\tField("parity", "string", length=1, label="Parity", comment=None, default="N"),\n\t\tField("stopbits", "integer", length=11, label="Stopbits", comment=None, default=1),\n\t\tField("bytesize", "integer", length=11, label="Bytesize", comment=None, default=8),\n\t\tField("status", "boolean", label="Status", comment=None),\n\t\tauth.signature,\n\t\tformat=\'%(device)s\'\n\t\t\n\t)\nSerial.is_active.readable = False\nSerial.is_active.writable = False\n\nGrupo = db.define_table("grupo",\n\t\tField("nome", "string", label="Nome", length=50, requires=IS_NOT_EMPTY(), notnull=True),\n\t\tField("desc", "string", length=80, label="Descri\xc3\xa7\xc3\xa3o", comment=None),\n\t\tauth.signature,\n\t\tformat=\'%(nome)s\'\n\t)\nGrupo.is_active.readable = False\nGrupo.is_active.writable = False\n\nIcons = db.define_table("icons",\n\t\tField("nome", "string", length=60, label="Nome", requires=IS_NOT_EMPTY(), notnull=True),\n\t\tField("icon", "string", length=80, label="Icon", comment=None),\n\t\tauth.signature,\n\t\tformat=\'%(nome)s\'\n\t)\nIcons.is_active.readable = False\nIcons.is_active.writable = False\n\n\nEmbarcado = db.define_table("embarcado",\n\t\tField("id_serial",Serial, label="Serial", unique=True, requires=IS_NOT_EMPTY(), notnull=True),\n\t\tField("id_grupo", Grupo, label="Grupo", unique=True, requires=IS_NOT_EMPTY(), notnull=True),\n\t\tField("id_icon", Icons, label="Icons", unique=True, requires=IS_NOT_EMPTY(), notnull=True),\n\t\tField("nome", "string", length=80, label="Nome", comment=None),\n\t\tField("descricao", "string", length=80, label="Descri\xc3\xa7\xc3\xa3o", comment=None),\n\t\tField("codigo_arduino", "integer", length=11, label="Arduino Cod.", comment=None),\n\t\tField("status", "boolean", label="Status", comment=None),\n\t\tauth.signature\n\t)\nEmbarcado.is_active.readable = False\nEmbarcado.is_active.writable = False\nEmbarcado.id_serial.requires = IS_IN_DB(db, Serial.id, Serial._format)\nEmbarcado.id_grupo.requires = IS_IN_DB(db, Grupo.id, Grupo._format)\nEmbarcado.id_icon.requires = IS_IN_DB(db, Icons.id, Icons._format)\n\n\n\nfor row in db((Serial.id > 0) & (Serial.status == True)).select():\n\tSERIAIS[Serial.id] = serial.Serial(\n\t\tSerial.device,\n\t\tSerial.baud_rate,\n\t\ttimeout=Serial.timeout,\n\t\tbytesize=Serial.bytesize,\n\t\tstopbits=Serial.stopbits,\n\t\tparity=Serial.parity\n\t)\n'
p7
sS'snapshot'
p8
(dp9
S'exception'
p10
(dp11
S'__module__'
p12
S"'sqlite3'"
p13
sS'__getslice__'
p14
S"<method-wrapper '__getslice__' of OperationalError object>"
p15
sS'__str__'
p16
S"<method-wrapper '__str__' of OperationalError object>"
p17
sS'__reduce__'
p18
S'<built-in method __reduce__ of OperationalError object>'
p19
sS'__dict__'
p20
S'{}'
p21
sS'__sizeof__'
p22
S'<built-in method __sizeof__ of OperationalError object>'
p23
sS'__weakref__'
p24
S'None'
p25
sS'__init__'
p26
S"<method-wrapper '__init__' of OperationalError object>"
p27
sS'__setattr__'
p28
S"<method-wrapper '__setattr__' of OperationalError object>"
p29
sS'__reduce_ex__'
p30
S'<built-in method __reduce_ex__ of OperationalError object>'
p31
sS'__new__'
p32
S'<built-in method __new__ of type object>'
p33
sS'__format__'
p34
S'<built-in method __format__ of OperationalError object>'
p35
sS'__class__'
p36
S"<class 'sqlite3.OperationalError'>"
p37
sS'__doc__'
p38
S'None'
p39
sS'__getitem__'
p40
S"<method-wrapper '__getitem__' of OperationalError object>"
p41
sS'__setstate__'
p42
S'<built-in method __setstate__ of OperationalError object>'
p43
sS'__getattribute__'
p44
S"<method-wrapper '__getattribute__' of OperationalError object>"
p45
sS'args'
p46
S"('Cannot add a UNIQUE column',)"
p47
sS'__subclasshook__'
p48
S'<built-in method __subclasshook__ of type object>'
p49
sS'__unicode__'
p50
S'<built-in method __unicode__ of OperationalError object>'
p51
sS'__delattr__'
p52
S"<method-wrapper '__delattr__' of OperationalError object>"
p53
sS'__repr__'
p54
S"<method-wrapper '__repr__' of OperationalError object>"
p55
sS'__hash__'
p56
S"<method-wrapper '__hash__' of OperationalError object>"
p57
ssS'evalue'
p58
S'Cannot add a UNIQUE column'
p59
sS'request'
p60
cgluon.html
XML_unpickle
p61
(S's\xa7]\x00\x00<div><table><tr><td style="font-weight:bold;vertical-align:top;">ajax</td><td style="vertical-align:top;">:</td><td><div>False</div></td></tr><tr><td style="font-weight:bold;vertical-align:top;">application</td><td style="vertical-align:top;">:</td><td><div>Arduino</div></td></tr><tr><td style="font-weight:bold;vertical-align:top;">args</td><td style="vertical-align:top;">:</td><td><div><table></table></div></td></tr><tr><td style="font-weight:bold;vertical-align:top;">cid</td><td style="vertical-align:top;">:</td><td><div>None</div></td></tr><tr><td style="font-weight:bold;vertical-align:top;">client</td><td style="vertical-align:top;">:</td><td><div>127.0.0.1</div></td></tr><tr><td style="font-weight:bold;vertical-align:top;">controller</td><td style="vertical-align:top;">:</td><td><div>dispositivo</div></td></tr><tr><td style="font-weight:bold;vertical-align:top;">cookies</td><td style="vertical-align:top;">:</td><td><div><table><tr><td style="font-weight:bold;vertical-align:top;">session_id_admin</td><td style="vertical-align:top;">:</td><td><div>127.0.0.1-8070f141-515f-4f0c-9b9a-d4802ca97a82<table><tr><td style="font-weight:bold;vertical-align:top;">comment</td><td style="vertical-align:top;">:</td><td><div></div></td></tr><tr><td style="font-weight:bold;vertical-align:top;">domain</td><td style="vertical-align:top;">:</td><td><div></div></td></tr><tr><td style="font-weight:bold;vertical-align:top;">expires</td><td style="vertical-align:top;">:</td><td><div></div></td></tr><tr><td style="font-weight:bold;vertical-align:top;">httponly</td><td style="vertical-align:top;">:</td><td><div></div></td></tr><tr><td style="font-weight:bold;vertical-align:top;">max-age</td><td style="vertical-align:top;">:</td><td><div></div></td></tr><tr><td style="font-weight:bold;vertical-align:top;">path</td><td style="vertical-align:top;">:</td><td><div></div></td></tr><tr><td style="font-weight:bold;vertical-align:top;">secure</td><td style="vertical-align:top;">:</td><td><div></div></td></tr><tr><td style="font-weight:bold;vertical-align:top;">version</td><td style="vertical-align:top;">:</td><td><div></div></td></tr></table></div></td></tr><tr><td style="font-weight:bold;vertical-align:top;">session_id_arduino</td><td style="vertical-align:top;">:</td><td><div>127.0.0.1-19f47e0f-a189-46ed-9e7f-171ac7d1aed5<table><tr><td style="font-weight:bold;vertical-align:top;">comment</td><td style="vertical-align:top;">:</td><td><div></div></td></tr><tr><td style="font-weight:bold;vertical-align:top;">domain</td><td style="vertical-align:top;">:</td><td><div></div></td></tr><tr><td style="font-weight:bold;vertical-align:top;">expires</td><td style="vertical-align:top;">:</td><td><div></div></td></tr><tr><td style="font-weight:bold;vertical-align:top;">httponly</td><td style="vertical-align:top;">:</td><td><div></div></td></tr><tr><td style="font-weight:bold;vertical-align:top;">max-age</td><td style="vertical-align:top;">:</td><td><div></div></td></tr><tr><td style="font-weight:bold;vertical-align:top;">path</td><td style="vertical-align:top;">:</td><td><div></div></td></tr><tr><td style="font-weight:bold;vertical-align:top;">secure</td><td style="vertical-align:top;">:</td><td><div></div></td></tr><tr><td style="font-weight:bold;vertical-align:top;">version</td><td style="vertical-align:top;">:</td><td><div></div></td></tr></table></div></td></tr><tr><td style="font-weight:bold;vertical-align:top;">session_id_welcome</td><td style="vertical-align:top;">:</td><td><div>127.0.0.1-fc576e40-83ea-4199-ae9e-88636e73edb1<table><tr><td style="font-weight:bold;vertical-align:top;">comment</td><td style="vertical-align:top;">:</td><td><div></div></td></tr><tr><td style="font-weight:bold;vertical-align:top;">domain</td><td style="vertical-align:top;">:</td><td><div></div></td></tr><tr><td style="font-weight:bold;vertical-align:top;">expires</td><td style="vertical-align:top;">:</td><td><div></div></td></tr><tr><td style="font-weight:bold;vertical-align:top;">httponly</td><td style="vertical-align:top;">:</td><td><div></div></td></tr><tr><td style="font-weight:bold;vertical-align:top;">max-age</td><td style="vertical-align:top;">:</td><td><div></div></td></tr><tr><td style="font-weight:bold;vertical-align:top;">path</td><td style="vertical-align:top;">:</td><td><div></div></td></tr><tr><td style="font-weight:bold;vertical-align:top;">secure</td><td style="vertical-align:top;">:</td><td><div></div></td></tr><tr><td style="font-weight:bold;vertical-align:top;">version</td><td style="vertical-align:top;">:</td><td><div></div></td></tr></table></div></td></tr></table></div></td></tr><tr><td style="font-weight:bold;vertical-align:top;">env</td><td style="vertical-align:top;">:</td><td><div><table><tr><td style="font-weight:bold;vertical-align:top;">HTTP_ACCEPT</td><td style="vertical-align:top;">:</td><td><div>text/html,application/xhtml+xml,application/xml;q=0.9,image/webp,*/*;q=0.8</div></td></tr><tr><td style="font-weight:bold;vertical-align:top;">HTTP_ACCEPT_ENCODING</td><td style="vertical-align:top;">:</td><td><div>gzip, deflate, sdch</div></td></tr><tr><td style="font-weight:bold;vertical-align:top;">HTTP_ACCEPT_LANGUAGE</td><td style="vertical-align:top;">:</td><td><div>pt-BR,pt;q=0.8</div></td></tr><tr><td style="font-weight:bold;vertical-align:top;">HTTP_CACHE_CONTROL</td><td style="vertical-align:top;">:</td><td><div>max-age=0</div></td></tr><tr><td style="font-weight:bold;vertical-align:top;">HTTP_CONNECTION</td><td style="vertical-align:top;">:</td><td><div>keep-alive</div></td></tr><tr><td style="font-weight:bold;vertical-align:top;">HTTP_COOKIE</td><td style="vertical-align:top;">:</td><td><div>session_id_welcome=127.0.0.1-fc576e40-83ea-4199-ae9e-88636e73edb1; session_id_arduino=127.0.0.1-19f47e0f-a189-46ed-9e7f-171ac7d1aed5; session_id_admin=127.0.0.1-8070f141-515f-4f0c-9b9a-d4802ca97a82</div></td></tr><tr><td style="font-weight:bold;vertical-align:top;">HTTP_HOST</td><td style="vertical-align:top;">:</td><td><div>127.0.0.1:4430</div></td></tr><tr><td style="font-weight:bold;vertical-align:top;">HTTP_REFERER</td><td style="vertical-align:top;">:</td><td><div>http://127.0.0.1:4430/Arduino/dispositivo/index</div></td></tr><tr><td style="font-weight:bold;vertical-align:top;">HTTP_UPGRADE_INSECURE_REQUESTS</td><td style="vertical-align:top;">:</td><td><div>1</div></td></tr><tr><td style="font-weight:bold;vertical-align:top;">HTTP_USER_AGENT</td><td style="vertical-align:top;">:</td><td><div>Mozilla/5.0 (Windows NT 6.1; WOW64) AppleWebKit/537.36 (KHTML, like Gecko) Chrome/48.0.2564.116 Safari/537.36</div></td></tr><tr><td style="font-weight:bold;vertical-align:top;">PATH_INFO</td><td style="vertical-align:top;">:</td><td><div>/Arduino/dispositivo/adicionar</div></td></tr><tr><td style="font-weight:bold;vertical-align:top;">QUERY_STRING</td><td style="vertical-align:top;">:</td><td><div></div></td></tr><tr><td style="font-weight:bold;vertical-align:top;">REMOTE_ADDR</td><td style="vertical-align:top;">:</td><td><div>127.0.0.1</div></td></tr><tr><td style="font-weight:bold;vertical-align:top;">REMOTE_PORT</td><td style="vertical-align:top;">:</td><td><div>50081</div></td></tr><tr><td style="font-weight:bold;vertical-align:top;">REQUEST_METHOD</td><td style="vertical-align:top;">:</td><td><div>GET</div></td></tr><tr><td style="font-weight:bold;vertical-align:top;">SCRIPT_NAME</td><td style="vertical-align:top;">:</td><td><div></div></td></tr><tr><td style="font-weight:bold;vertical-align:top;">SERVER_NAME</td><td style="vertical-align:top;">:</td><td><div>marcos-ads-PC</div></td></tr><tr><td style="font-weight:bold;vertical-align:top;">SERVER_PORT</td><td style="vertical-align:top;">:</td><td><div>4430</div></td></tr><tr><td style="font-weight:bold;vertical-align:top;">SERVER_PROTOCOL</td><td style="vertical-align:top;">:</td><td><div>HTTP/1.1</div></td></tr><tr><td style="font-weight:bold;vertical-align:top;">SERVER_SOFTWARE</td><td style="vertical-align:top;">:</td><td><div>Rocket 1.2.6</div></td></tr><tr><td style="font-weight:bold;vertical-align:top;">app_folders</td><td style="vertical-align:top;">:</td><td><div>set([&#x27;C:\\\\Python27\\\\web2py\\\\applications\\\\Arduino\\\\&#x27;, &#x27;C:\\\\Python27\\\\web2py\\\\applications\\\\admin\\\\&#x27;, &#x27;C:\\\\Python27\\\\web2py\\\\applications\\\\welcome\\\\&#x27;])</div></td></tr><tr><td style="font-weight:bold;vertical-align:top;">applications_parent</td><td style="vertical-align:top;">:</td><td><div>C:\\Python27\\web2py</div></td></tr><tr><td style="font-weight:bold;vertical-align:top;">cmd_args</td><td style="vertical-align:top;">:</td><td><div><table></table></div></td></tr><tr><td style="font-weight:bold;vertical-align:top;">cmd_options</td><td style="vertical-align:top;">:</td><td><div>&lt;Values at 0x3ecce40: {&#x27;verbose&#x27;: False, &#x27;ip&#x27;: &#x27;127.0.0.1&#x27;, &#x27;debuglevel&#x27;: 30, &#x27;with_scheduler&#x27;: False, &#x27;ips&#x27;: [], &#x27;shutdown_timeout&#x27;: 5, &#x27;taskbar&#x27;: False, &#x27;with_coverage&#x27;: False, &#x27;scheduler_groups&#x27;: None, &#x27;port&#x27;: 4430, &#x27;maxthreads&#x27;: None, &#x27;softcron&#x27;: False, &#x27;server_name&#x27;: &#x27;marcos-ads-PC&#x27;, &#x27;bpython&#x27;: False, &#x27;nogui&#x27;: False, &#x27;pid_filename&#x27;: &#x27;httpserver.pid&#x27;, &#x27;print_errors&#x27;: False, &#x27;extcron&#x27;: False, &#x27;runcron&#x27;: False, &#x27;run_system_tests&#x27;: False, &#x27;test&#x27;: None, &#x27;folder&#x27;: &#x27;C:\\\\Python27\\\\web2py&#x27;, &#x27;config&#x27;: &#x27;&#x27;, &#x27;minthreads&#x27;: None, &#x27;shell&#x27;: None, &#x27;run&#x27;: &#x27;&#x27;, &#x27;log_filename&#x27;: &#x27;httpserver.log&#x27;, &#x27;profiler_dir&#x27;: None, &#x27;args&#x27;: [&#x27;&#x27;], &#x27;socket_timeout&#x27;: 5, &#x27;ssl_ca_certificate&#x27;: None, &#x27;scheduler&#x27;: None, &#x27;interfaces&#x27;: None, &#x27;ssl_private_key&#x27;: &#x27;&#x27;, &#x27;gae&#x27;: None, &#x27;password&#x27;: &#x27;1234&#x27;, &#x27;request_queue_size&#x27;: 5, &#x27;ssl_certificate&#x27;: &#x27;&#x27;, &#x27;cronjob&#x27;: False, &#x27;numthreads&#x27;: None, &#x27;quiet&#x27;: False, &#x27;import_models&#x27;: False, &#x27;timeout&#x27;: 10, &#x27;plain&#x27;: False, &#x27;nobanner&#x27;: False}&gt;</div></td></tr><tr><td style="font-weight:bold;vertical-align:top;">db_sessions</td><td style="vertical-align:top;">:</td><td><div>set([])</div></td></tr><tr><td style="font-weight:bold;vertical-align:top;">debugging</td><td style="vertical-align:top;">:</td><td><div>False</div></td></tr><tr><td style="font-weight:bold;vertical-align:top;">gluon_parent</td><td style="vertical-align:top;">:</td><td><div>C:\\Python27\\web2py</div></td></tr><tr><td style="font-weight:bold;vertical-align:top;">http_accept</td><td style="vertical-align:top;">:</td><td><div>text/html,application/xhtml+xml,application/xml;q=0.9,image/webp,*/*;q=0.8</div></td></tr><tr><td style="font-weight:bold;vertical-align:top;">http_accept_encoding</td><td style="vertical-align:top;">:</td><td><div>gzip, deflate, sdch</div></td></tr><tr><td style="font-weight:bold;vertical-align:top;">http_accept_language</td><td style="vertical-align:top;">:</td><td><div>pt-BR,pt;q=0.8</div></td></tr><tr><td style="font-weight:bold;vertical-align:top;">http_cache_control</td><td style="vertical-align:top;">:</td><td><div>max-age=0</div></td></tr><tr><td style="font-weight:bold;vertical-align:top;">http_connection</td><td style="vertical-align:top;">:</td><td><div>keep-alive</div></td></tr><tr><td style="font-weight:bold;vertical-align:top;">http_cookie</td><td style="vertical-align:top;">:</td><td><div>session_id_welcome=127.0.0.1-fc576e40-83ea-4199-ae9e-88636e73edb1; session_id_arduino=127.0.0.1-19f47e0f-a189-46ed-9e7f-171ac7d1aed5; session_id_admin=127.0.0.1-8070f141-515f-4f0c-9b9a-d4802ca97a82</div></td></tr><tr><td style="font-weight:bold;vertical-align:top;">http_host</td><td style="vertical-align:top;">:</td><td><div>127.0.0.1:4430</div></td></tr><tr><td style="font-weight:bold;vertical-align:top;">http_referer</td><td style="vertical-align:top;">:</td><td><div>http://127.0.0.1:4430/Arduino/dispositivo/index</div></td></tr><tr><td style="font-weight:bold;vertical-align:top;">http_upgrade_insecure_requests</td><td style="vertical-align:top;">:</td><td><div>1</div></td></tr><tr><td style="font-weight:bold;vertical-align:top;">http_user_agent</td><td style="vertical-align:top;">:</td><td><div>Mozilla/5.0 (Windows NT 6.1; WOW64) AppleWebKit/537.36 (KHTML, like Gecko) Chrome/48.0.2564.116 Safari/537.36</div></td></tr><tr><td style="font-weight:bold;vertical-align:top;">is_jython</td><td style="vertical-align:top;">:</td><td><div>False</div></td></tr><tr><td style="font-weight:bold;vertical-align:top;">is_pypy</td><td style="vertical-align:top;">:</td><td><div>False</div></td></tr><tr><td style="font-weight:bold;vertical-align:top;">is_source</td><td style="vertical-align:top;">:</td><td><div>True</div></td></tr><tr><td style="font-weight:bold;vertical-align:top;">local_hosts</td><td style="vertical-align:top;">:</td><td><div><table><tr><td><div>fe80::bc01:2e34:530e:2ab2%14</div></td></tr><tr><td><div>192.168.25.149</div></td></tr><tr><td><div>::ffff:127.0.0.1</div></td></tr><tr><td><div>::1</div></td></tr><tr><td><div>marcos-ads-PC.home</div></td></tr><tr><td><div>127.0.0.1</div></td></tr><tr><td><div>marcos-ads-PC</div></td></tr></table></div></td></tr><tr><td style="font-weight:bold;vertical-align:top;">path_info</td><td style="vertical-align:top;">:</td><td><div>/Arduino/dispositivo/adicionar</div></td></tr><tr><td style="font-weight:bold;vertical-align:top;">query_string</td><td style="vertical-align:top;">:</td><td><div></div></td></tr><tr><td style="font-weight:bold;vertical-align:top;">remote_addr</td><td style="vertical-align:top;">:</td><td><div>127.0.0.1</div></td></tr><tr><td style="font-weight:bold;vertical-align:top;">remote_port</td><td style="vertical-align:top;">:</td><td><div>50081</div></td></tr><tr><td style="font-weight:bold;vertical-align:top;">request_method</td><td style="vertical-align:top;">:</td><td><div>GET</div></td></tr><tr><td style="font-weight:bold;vertical-align:top;">request_uri</td><td style="vertical-align:top;">:</td><td><div>/Arduino/dispositivo/adicionar</div></td></tr><tr><td style="font-weight:bold;vertical-align:top;">script_name</td><td style="vertical-align:top;">:</td><td><div></div></td></tr><tr><td style="font-weight:bold;vertical-align:top;">server_name</td><td style="vertical-align:top;">:</td><td><div>marcos-ads-PC</div></td></tr><tr><td style="font-weight:bold;vertical-align:top;">server_port</td><td style="vertical-align:top;">:</td><td><div>4430</div></td></tr><tr><td style="font-weight:bold;vertical-align:top;">server_protocol</td><td style="vertical-align:top;">:</td><td><div>HTTP/1.1</div></td></tr><tr><td style="font-weight:bold;vertical-align:top;">server_software</td><td style="vertical-align:top;">:</td><td><div>Rocket 1.2.6</div></td></tr><tr><td style="font-weight:bold;vertical-align:top;">web2py_path</td><td style="vertical-align:top;">:</td><td><div>C:\\Python27\\web2py</div></td></tr><tr><td style="font-weight:bold;vertical-align:top;">web2py_version</td><td style="vertical-align:top;">:</td><td><div>2.13.4-stable+timestamp.2016.02.10.15.41.11</div></td></tr><tr><td style="font-weight:bold;vertical-align:top;">wsgi.errors</td><td style="vertical-align:top;">:</td><td><div>&lt;open file &#x27;&lt;stderr&gt;&#x27;, mode &#x27;w&#x27; at 0x025FD0D0&gt;</div></td></tr><tr><td style="font-weight:bold;vertical-align:top;">wsgi.file_wrapper</td><td style="vertical-align:top;">:</td><td><div>&lt;class wsgiref.util.FileWrapper at 0x03E83FB8&gt;</div></td></tr><tr><td style="font-weight:bold;vertical-align:top;">wsgi.input</td><td style="vertical-align:top;">:</td><td><div>&lt;socket._fileobject object at 0x0764C830&gt;</div></td></tr><tr><td style="font-weight:bold;vertical-align:top;">wsgi.multiprocess</td><td style="vertical-align:top;">:</td><td><div>False</div></td></tr><tr><td style="font-weight:bold;vertical-align:top;">wsgi.multithread</td><td style="vertical-align:top;">:</td><td><div>True</div></td></tr><tr><td style="font-weight:bold;vertical-align:top;">wsgi.run_once</td><td style="vertical-align:top;">:</td><td><div>False</div></td></tr><tr><td style="font-weight:bold;vertical-align:top;">wsgi.url_scheme</td><td style="vertical-align:top;">:</td><td><div>http</div></td></tr><tr><td style="font-weight:bold;vertical-align:top;">wsgi.version</td><td style="vertical-align:top;">:</td><td><div><table><tr><td><div>1</div></td></tr><tr><td><div>0</div></td></tr></table></div></td></tr><tr><td style="font-weight:bold;vertical-align:top;">wsgi_errors</td><td style="vertical-align:top;">:</td><td><div>&lt;open file &#x27;&lt;stderr&gt;&#x27;, mode &#x27;w&#x27; at 0x025FD0D0&gt;</div></td></tr><tr><td style="font-weight:bold;vertical-align:top;">wsgi_file_wrapper</td><td style="vertical-align:top;">:</td><td><div>&lt;class wsgiref.util.FileWrapper at 0x03E83FB8&gt;</div></td></tr><tr><td style="font-weight:bold;vertical-align:top;">wsgi_input</td><td style="vertical-align:top;">:</td><td><div>&lt;socket._fileobject object at 0x0764C830&gt;</div></td></tr><tr><td style="font-weight:bold;vertical-align:top;">wsgi_multiprocess</td><td style="vertical-align:top;">:</td><td><div>False</div></td></tr><tr><td style="font-weight:bold;vertical-align:top;">wsgi_multithread</td><td style="vertical-align:top;">:</td><td><div>True</div></td></tr><tr><td style="font-weight:bold;vertical-align:top;">wsgi_run_once</td><td style="vertical-align:top;">:</td><td><div>False</div></td></tr><tr><td style="font-weight:bold;vertical-align:top;">wsgi_url_scheme</td><td style="vertical-align:top;">:</td><td><div>http</div></td></tr><tr><td style="font-weight:bold;vertical-align:top;">wsgi_version</td><td style="vertical-align:top;">:</td><td><div><table><tr><td><div>1</div></td></tr><tr><td><div>0</div></td></tr></table></div></td></tr></table></div></td></tr><tr><td style="font-weight:bold;vertical-align:top;">extension</td><td style="vertical-align:top;">:</td><td><div>html</div></td></tr><tr><td style="font-weight:bold;vertical-align:top;">folder</td><td style="vertical-align:top;">:</td><td><div>C:\\Python27\\web2py\\applications\\Arduino\\</div></td></tr><tr><td style="font-weight:bold;vertical-align:top;">function</td><td style="vertical-align:top;">:</td><td><div>adicionar</div></td></tr><tr><td style="font-weight:bold;vertical-align:top;">global_settings</td><td style="vertical-align:top;">:</td><td><div><table><tr><td style="font-weight:bold;vertical-align:top;">app_folders</td><td style="vertical-align:top;">:</td><td><div>set([&#x27;C:\\\\Python27\\\\web2py\\\\applications\\\\Arduino\\\\&#x27;, &#x27;C:\\\\Python27\\\\web2py\\\\applications\\\\admin\\\\&#x27;, &#x27;C:\\\\Python27\\\\web2py\\\\applications\\\\welcome\\\\&#x27;])</div></td></tr><tr><td style="font-weight:bold;vertical-align:top;">applications_parent</td><td style="vertical-align:top;">:</td><td><div>C:\\Python27\\web2py</div></td></tr><tr><td style="font-weight:bold;vertical-align:top;">cmd_args</td><td style="vertical-align:top;">:</td><td><div><table></table></div></td></tr><tr><td style="font-weight:bold;vertical-align:top;">cmd_options</td><td style="vertical-align:top;">:</td><td><div>&lt;Values at 0x3ecce40: {&#x27;verbose&#x27;: False, &#x27;ip&#x27;: &#x27;127.0.0.1&#x27;, &#x27;debuglevel&#x27;: 30, &#x27;with_scheduler&#x27;: False, &#x27;ips&#x27;: [], &#x27;shutdown_timeout&#x27;: 5, &#x27;taskbar&#x27;: False, &#x27;with_coverage&#x27;: False, &#x27;scheduler_groups&#x27;: None, &#x27;port&#x27;: 4430, &#x27;maxthreads&#x27;: None, &#x27;softcron&#x27;: False, &#x27;server_name&#x27;: &#x27;marcos-ads-PC&#x27;, &#x27;bpython&#x27;: False, &#x27;nogui&#x27;: False, &#x27;pid_filename&#x27;: &#x27;httpserver.pid&#x27;, &#x27;print_errors&#x27;: False, &#x27;extcron&#x27;: False, &#x27;runcron&#x27;: False, &#x27;run_system_tests&#x27;: False, &#x27;test&#x27;: None, &#x27;folder&#x27;: &#x27;C:\\\\Python27\\\\web2py&#x27;, &#x27;config&#x27;: &#x27;&#x27;, &#x27;minthreads&#x27;: None, &#x27;shell&#x27;: None, &#x27;run&#x27;: &#x27;&#x27;, &#x27;log_filename&#x27;: &#x27;httpserver.log&#x27;, &#x27;profiler_dir&#x27;: None, &#x27;args&#x27;: [&#x27;&#x27;], &#x27;socket_timeout&#x27;: 5, &#x27;ssl_ca_certificate&#x27;: None, &#x27;scheduler&#x27;: None, &#x27;interfaces&#x27;: None, &#x27;ssl_private_key&#x27;: &#x27;&#x27;, &#x27;gae&#x27;: None, &#x27;password&#x27;: &#x27;1234&#x27;, &#x27;request_queue_size&#x27;: 5, &#x27;ssl_certificate&#x27;: &#x27;&#x27;, &#x27;cronjob&#x27;: False, &#x27;numthreads&#x27;: None, &#x27;quiet&#x27;: False, &#x27;import_models&#x27;: False, &#x27;timeout&#x27;: 10, &#x27;plain&#x27;: False, &#x27;nobanner&#x27;: False}&gt;</div></td></tr><tr><td style="font-weight:bold;vertical-align:top;">db_sessions</td><td style="vertical-align:top;">:</td><td><div>set([])</div></td></tr><tr><td style="font-weight:bold;vertical-align:top;">debugging</td><td style="vertical-align:top;">:</td><td><div>False</div></td></tr><tr><td style="font-weight:bold;vertical-align:top;">gluon_parent</td><td style="vertical-align:top;">:</td><td><div>C:\\Python27\\web2py</div></td></tr><tr><td style="font-weight:bold;vertical-align:top;">is_jython</td><td style="vertical-align:top;">:</td><td><div>False</div></td></tr><tr><td style="font-weight:bold;vertical-align:top;">is_pypy</td><td style="vertical-align:top;">:</td><td><div>False</div></td></tr><tr><td style="font-weight:bold;vertical-align:top;">is_source</td><td style="vertical-align:top;">:</td><td><div>True</div></td></tr><tr><td style="font-weight:bold;vertical-align:top;">local_hosts</td><td style="vertical-align:top;">:</td><td><div><table><tr><td><div>fe80::bc01:2e34:530e:2ab2%14</div></td></tr><tr><td><div>192.168.25.149</div></td></tr><tr><td><div>::ffff:127.0.0.1</div></td></tr><tr><td><div>::1</div></td></tr><tr><td><div>marcos-ads-PC.home</div></td></tr><tr><td><div>127.0.0.1</div></td></tr><tr><td><div>marcos-ads-PC</div></td></tr></table></div></td></tr><tr><td style="font-weight:bold;vertical-align:top;">web2py_version</td><td style="vertical-align:top;">:</td><td><div>2.13.4-stable+timestamp.2016.02.10.15.41.11</div></td></tr></table></div></td></tr><tr><td style="font-weight:bold;vertical-align:top;">is_https</td><td style="vertical-align:top;">:</td><td><div>False</div></td></tr><tr><td style="font-weight:bold;vertical-align:top;">is_local</td><td style="vertical-align:top;">:</td><td><div>True</div></td></tr><tr><td style="font-weight:bold;vertical-align:top;">is_restful</td><td style="vertical-align:top;">:</td><td><div>False</div></td></tr><tr><td style="font-weight:bold;vertical-align:top;">is_scheduler</td><td style="vertical-align:top;">:</td><td><div>False</div></td></tr><tr><td style="font-weight:bold;vertical-align:top;">is_shell</td><td style="vertical-align:top;">:</td><td><div>False</div></td></tr><tr><td style="font-weight:bold;vertical-align:top;">now</td><td style="vertical-align:top;">:</td><td><div>datetime.datetime(2016, 2, 29, 23, 11, 0, 457000)</div></td></tr><tr><td style="font-weight:bold;vertical-align:top;">raw_args</td><td style="vertical-align:top;">:</td><td><div></div></td></tr><tr><td style="font-weight:bold;vertical-align:top;">raw_extension</td><td style="vertical-align:top;">:</td><td><div>None</div></td></tr><tr><td style="font-weight:bold;vertical-align:top;">url</td><td style="vertical-align:top;">:</td><td><div>/Arduino/dispositivo/adicionar</div></td></tr><tr><td style="font-weight:bold;vertical-align:top;">utcnow</td><td style="vertical-align:top;">:</td><td><div>datetime.datetime(2016, 3, 1, 2, 11, 0, 457000)</div></td></tr><tr><td style="font-weight:bold;vertical-align:top;">wsgi</td><td style="vertical-align:top;">:</td><td><div>&lt;gluon.main.LazyWSGI object at 0x075B5A30&gt;</div></td></tr></table></div>'
tRp62
sS'frames'
p63
(lp64
(dp65
S'file'
p66
S'C:\\Python27\\web2py\\gluon\\restricted.py'
p67
sS'dump'
p68
(dp69
S'environment'
p70
S"{'A': <class 'gluon.html.A'>, 'ANY_OF': <class 'gluon.validators.ANY_OF'>, 'ASSIGNJS': <function ASSIGNJS>, 'Auth': <class 'gluon.tools.Auth'>, 'B': <class 'gluon.html.B'>, 'BEAUTIFY': <class 'gluon.html.BEAUTIFY'>, 'BODY': <class 'gluon.html.BODY'>, 'BR': <class 'gluon.html.BR'>, 'BUTTON': <class 'gluon.html.BUTTON'>, 'CAT': <class 'gluon.html.CAT'>, ...}"
p71
sS'ccode'
p72
S'<code object <module> at 0763FBA8, file "C:\\Pyth...eb2py\\applications\\Arduino\\models\\db.py", line 3>'
p73
ssS'lnum'
p74
I227
sS'lines'
p75
(dp76
I224
S'            ccode = code'
p77
sI225
S'        else:'
p78
sI226
S'            ccode = compile2(code, layer)'
p79
sI227
S'        exec ccode in environment'
p80
sI228
S'    except HTTP:'
p81
sI229
S'        raise'
p82
sI230
S'    except RestrictedError:'
p83
sI231
S'        # do not encapsulate (obfuscate) the original RestrictedError'
p84
sI222
S'    try:'
p85
sI223
S'        if isinstance(code, types.CodeType):'
p86
ssS'call'
p87
S"(code='# -*- coding: utf-8 -*-\\n\\nimport serial\\n\\nSERIAIS ...pbits=Serial.stopbits,\\n\\t\\tparity=Serial.parity\\n\\t)\\n', environment={'A': <class 'gluon.html.A'>, 'ANY_OF': <class 'gluon.validators.ANY_OF'>, 'ASSIGNJS': <function ASSIGNJS>, 'Auth': <class 'gluon.tools.Auth'>, 'B': <class 'gluon.html.B'>, 'BEAUTIFY': <class 'gluon.html.BEAUTIFY'>, 'BODY': <class 'gluon.html.BODY'>, 'BR': <class 'gluon.html.BR'>, 'BUTTON': <class 'gluon.html.BUTTON'>, 'CAT': <class 'gluon.html.CAT'>, ...}, layer=r'C:\\Python27\\web2py\\applications\\Arduino\\models\\db.py')"
p88
sS'func'
p89
S'restricted'
p90
sa(dp91
g66
S'C:\\Python27\\web2py\\applications\\Arduino\\models\\db.py'
p92
sg68
(dp93
S'auth.signature'
p94
S'<Table auth_signature (id,is_active,created_on,created_by,modified_on,modified_by)>'
p95
sS'auth'
p96
S'<gluon.tools.Auth object>'
p97
ssg74
I64
sg75
(dp98
I64
S'\t\tauth.signature'
p99
sI65
S'\t)'
p100
sI66
S'Embarcado.is_active.readable = False'
p101
sI67
S'Embarcado.is_active.writable = False'
p102
sI68
S'Embarcado.id_serial.requires = IS_IN_DB(db, Serial.id, Serial._format)'
p103
sI59
S'\t\tField("id_icon", Icons, label="Icons", unique=True, requires=IS_NOT_EMPTY(), notnull=True),'
p104
sI60
S'\t\tField("nome", "string", length=80, label="Nome", comment=None),'
p105
sI61
S'\t\tField("descricao", "string", length=80, label="Descri\xc3\xa7\xc3\xa3o", comment=None),'
p106
sI62
S'\t\tField("codigo_arduino", "integer", length=11, label="Arduino Cod.", comment=None),'
p107
sI63
S'\t\tField("status", "boolean", label="Status", comment=None),'
p108
ssg87
S'()'
p109
sg89
S'<module>'
p110
sa(dp111
g66
S'C:\\Python27\\web2py\\gluon\\packages\\dal\\pydal\\base.py'
p112
sg68
(dp113
S'fields'
p114
S'(<pydal.objects.Field object>, <pydal.objects.Field object>, <pydal.objects.Field object>, <pydal.objects.Field object>, <pydal.objects.Field object>, <pydal.objects.Field object>, <pydal.objects.Field object>, <Table auth_signature (id,is_active,created_on,created_by,modified_on,modified_by)>)'
p115
sS'self'
p116
S'<DAL uri="sqlite://storage.sqlite">'
p117
sS'args'
p118
g21
sS'tablename'
p119
S"'embarcado'"
p120
sS'table'
p121
S'undefined'
p122
sS'self.lazy_define_table'
p123
S'<bound method DAL.lazy_define_table of <DAL uri="sqlite://storage.sqlite">>'
p124
ssg74
I834
sg75
(dp125
I832
S'            table = None'
p126
sI833
S'        else:'
p127
sI834
S'            table = self.lazy_define_table(tablename,*fields,**args)'
p128
sI835
S'        if not tablename in self.tables:'
p129
sI836
S'            self.tables.append(tablename)'
p130
sI837
S'        return table'
p131
sI838
S''
sI829
S'                    % (tablename,invalid_args))'
p132
sI830
S'        if self._lazy_tables and tablename not in self._LAZY_TABLES:'
p133
sI831
S'            self._LAZY_TABLES[tablename] = (tablename,fields,args)'
p134
ssg87
S'(self=<DAL uri="sqlite://storage.sqlite">, tablename=\'embarcado\', *fields=(<pydal.objects.Field object>, <pydal.objects.Field object>, <pydal.objects.Field object>, <pydal.objects.Field object>, <pydal.objects.Field object>, <pydal.objects.Field object>, <pydal.objects.Field object>, <Table auth_signature (id,is_active,created_on,created_by,modified_on,modified_by)>), **args={})'
p135
sg89
S'define_table'
p136
sa(dp137
g66
S'C:\\Python27\\web2py\\gluon\\packages\\dal\\pydal\\base.py'
p138
sg68
(dp139
S'polymodel'
p140
S'None'
p141
ssg74
I873
sg75
(dp142
I868
S'            try:'
p143
sI869
S'                GLOBAL_LOCKER.acquire()'
p144
sI870
S'                self._lastsql = self._adapter.create_table('
p145
sI871
S'                    table,migrate=migrate,'
p146
sI872
S'                    fake_migrate=fake_migrate,'
p147
sI873
S'                    polymodel=polymodel)'
p148
sI874
S'            finally:'
p149
sI875
S'                GLOBAL_LOCKER.release()'
p150
sI876
S'        else:'
p151
sI877
S'            table._dbt = None'
p152
ssg87
S'(self=<DAL uri="sqlite://storage.sqlite">, tablename=\'embarcado\', *fields=(<pydal.objects.Field object>, <pydal.objects.Field object>, <pydal.objects.Field object>, <pydal.objects.Field object>, <pydal.objects.Field object>, <pydal.objects.Field object>, <pydal.objects.Field object>, <Table auth_signature (id,is_active,created_on,created_by,modified_on,modified_by)>), **args={})'
p153
sg89
S'lazy_define_table'
p154
sa(dp155
g66
S'C:\\Python27\\web2py\\gluon\\packages\\dal\\pydal\\adapters\\base.py'
p156
sg68
(dp157
S'fake_migrate'
p158
S'False'
p159
ssg74
I510
sg75
(dp160
I512
S'        return query'
p161
sI513
S''
sI514
S'    def migrate_table('
p162
sI505
S'            if sql_fields != sql_fields_old:'
p163
sI506
S'                self.migrate_table('
p164
sI507
S'                    table,'
p165
sI508
S'                    sql_fields, sql_fields_old,'
p166
sI509
S'                    sql_fields_aux, None,'
p167
sI510
S'                    fake_migrate=fake_migrate'
p168
sI511
S'                    )'
p169
ssg87
S'(self=<pydal.adapters.sqlite.SQLiteAdapter object>, table=<Table embarcado (id,id_serial,id_grupo,id_icon,...e,created_on,created_by,modified_on,modified_by)>, migrate=True, fake_migrate=False, polymodel=None)'
p170
sg89
S'create_table'
p171
sa(dp172
g66
S'C:\\Python27\\web2py\\gluon\\packages\\dal\\pydal\\adapters\\base.py'
p173
sg68
(dp174
S'self'
p175
S'<pydal.adapters.sqlite.SQLiteAdapter object>'
p176
sS'self.execute'
p177
S'<bound method SQLiteAdapter.execute of <pydal.adapters.sqlite.SQLiteAdapter object>>'
p178
sS'sub_query'
p179
S"'ALTER TABLE embarcado ADD id_grupo INTEGER REFER...S grupo (id) ON DELETE CASCADE  NOT NULL  UNIQUE;'"
p180
ssg74
I623
sg75
(dp181
I618
S'                    if fake_migrate:'
p182
sI619
S'                        if db._adapter.commit_on_alter_table:'
p183
sI620
S'                            self.save_dbt(table,sql_fields_current)'
p184
sI621
S"                        self.log('faked!\\n', table)"
p185
sI622
S'                    else:'
p186
sI623
S'                        self.execute(sub_query)'
p187
sI624
S'                        # Caveat: mysql, oracle and firebird'
p188
sI625
S'                        # do not allow multiple alter table'
p189
sI626
S'                        # in one transaction so we must commit'
p190
sI627
S'                        # partial transactions and'
p191
ssg87
S"(self=<pydal.adapters.sqlite.SQLiteAdapter object>, table=<Table embarcado (id,id_serial,id_grupo,id_icon,...e,created_on,created_by,modified_on,modified_by)>, sql_fields={'codigo_arduino': {'length': 11, 'notnull': False, 'sortable': 7, 'sql': 'INTEGER', 'type': 'integer', 'unique': False}, 'created_by': {'length': 512, 'notnull': False, 'sortable': 11, 'sql': 'INTEGER REFERENCES auth_user (id) ON DELETE CASCADE  ', 'type': 'reference auth_user', 'unique': False}, 'created_on': {'length': 512, 'notnull': False, 'sortable': 10, 'sql': 'TIMESTAMP', 'type': 'datetime', 'unique': False}, 'descricao': {'length': 80, 'notnull': False, 'sortable': 6, 'sql': 'CHAR(80)', 'type': 'string', 'unique': False}, 'id': {'length': 512, 'notnull': False, 'sortable': 1, 'sql': 'INTEGER PRIMARY KEY AUTOINCREMENT', 'type': 'id', 'unique': False}, 'id_grupo': {'length': 512, 'notnull': True, 'sortable': 3, 'sql': 'INTEGER REFERENCES grupo (id) ON DELETE CASCADE  NOT NULL  UNIQUE', 'type': 'reference grupo', 'unique': True}, 'id_icon': {'length': 512, 'notnull': True, 'sortable': 4, 'sql': 'INTEGER REFERENCES icons (id) ON DELETE CASCADE  NOT NULL  UNIQUE', 'type': 'reference icons', 'unique': True}, 'id_serial': {'length': 512, 'notnull': True, 'sortable': 2, 'sql': 'INTEGER REFERENCES serial (id) ON DELETE CASCADE  NOT NULL  UNIQUE', 'type': 'reference serial', 'unique': True}, 'is_active': {'length': 512, 'notnull': False, 'sortable': 9, 'sql': 'CHAR(1)', 'type': 'boolean', 'unique': False}, 'modified_by': {'length': 512, 'notnull': False, 'sortable': 13, 'sql': 'INTEGER REFERENCES auth_user (id) ON DELETE CASCADE  ', 'type': 'reference auth_user', 'unique': False}, ...}, sql_fields_old={'codigo_arduino': {'length': 11, 'notnull': False, 'sortable': 5, 'sql': 'INTEGER', 'type': 'integer', 'unique': False}, 'created_by': {'length': 512, 'notnull': False, 'sortable': 9, 'sql': 'INTEGER REFERENCES auth_user (id) ON DELETE CASCADE  ', 'type': 'reference auth_user', 'unique': False}, 'created_on': {'length': 512, 'notnull': False, 'sortable': 8, 'sql': 'TIMESTAMP', 'type': 'datetime', 'unique': False}, 'descricao': {'length': 80, 'notnull': False, 'sortable': 4, 'sql': 'CHAR(80)', 'type': 'string', 'unique': False}, 'id': {'length': 512, 'notnull': False, 'sortable': 1, 'sql': 'INTEGER PRIMARY KEY AUTOINCREMENT', 'type': 'id', 'unique': False}, 'id_serial': {'length': 512, 'notnull': True, 'sortable': 2, 'sql': 'INTEGER REFERENCES serial (id) ON DELETE CASCADE  NOT NULL  UNIQUE', 'type': 'reference serial', 'unique': True}, 'is_active': {'length': 512, 'notnull': False, 'sortable': 7, 'sql': 'CHAR(1)', 'type': 'boolean', 'unique': False}, 'modified_by': {'length': 512, 'notnull': False, 'sortable': 11, 'sql': 'INTEGER REFERENCES auth_user (id) ON DELETE CASCADE  ', 'type': 'reference auth_user', 'unique': False}, 'modified_on': {'length': 512, 'notnull': False, 'sortable': 10, 'sql': 'TIMESTAMP', 'type': 'datetime', 'unique': False}, 'nome': {'length': 80, 'notnull': False, 'sortable': 3, 'sql': 'CHAR(80)', 'type': 'string', 'unique': False}, ...}, sql_fields_aux={'codigo_arduino': {'sql': 'INTEGER'}, 'created_by': {'sql': 'INTEGER REFERENCES auth_user (id) ON DELETE CASCADE  '}, 'created_on': {'sql': 'TIMESTAMP'}, 'descricao': {'sql': 'CHAR(80)'}, 'id': {'sql': 'INTEGER PRIMARY KEY AUTOINCREMENT'}, 'id_grupo': {'sql': 'INTEGER REFERENCES grupo (id) ON DELETE CASCADE  NOT NULL  UNIQUE'}, 'id_icon': {'sql': 'INTEGER REFERENCES icons (id) ON DELETE CASCADE  NOT NULL  UNIQUE'}, 'id_serial': {'sql': 'INTEGER REFERENCES serial (id) ON DELETE CASCADE  NOT NULL  UNIQUE'}, 'is_active': {'sql': 'CHAR(1)'}, 'modified_by': {'sql': 'INTEGER REFERENCES auth_user (id) ON DELETE CASCADE  '}, ...}, logfile=None, fake_migrate=False)"
p192
sg89
S'migrate_table'
p193
sa(dp194
g66
S'C:\\Python27\\web2py\\gluon\\packages\\dal\\pydal\\adapters\\base.py'
p195
sg68
(dp196
S'a'
S"('ALTER TABLE embarcado ADD id_grupo INTEGER REFER...S grupo (id) ON DELETE CASCADE  NOT NULL  UNIQUE;',)"
p197
sS'self'
p198
S'<pydal.adapters.sqlite.SQLiteAdapter object>'
p199
sS'b'
g21
sS'self.log_execute'
p200
S'<bound method SQLiteAdapter.log_execute of <pydal.adapters.sqlite.SQLiteAdapter object>>'
p201
ssg74
I1385
sg75
(dp202
I1380
S'        self.db._timings.append((command,time.time()-t0))'
p203
sI1381
S'        del self.db._timings[:-TIMINGSSIZE]'
p204
sI1382
S'        return ret'
p205
sI1383
S''
sI1384
S'    def execute(self, *a, **b):'
p206
sI1385
S'        return self.log_execute(*a, **b)'
p207
sI1386
S''
sI1387
S'    def execute_test_query(self):'
p208
sI1388
S'        return self.execute(self.test_query)'
p209
sI1389
S''
ssg87
S"(self=<pydal.adapters.sqlite.SQLiteAdapter object>, *a=('ALTER TABLE embarcado ADD id_grupo INTEGER REFER...S grupo (id) ON DELETE CASCADE  NOT NULL  UNIQUE;',), **b={})"
p210
sg89
S'execute'
p211
sa(dp212
g66
S'C:\\Python27\\web2py\\gluon\\packages\\dal\\pydal\\adapters\\base.py'
p213
sg68
(dp214
S'a'
S"('ALTER TABLE embarcado ADD id_grupo INTEGER REFER...S grupo (id) ON DELETE CASCADE  NOT NULL  UNIQUE;',)"
p215
sS'b'
g21
sS'self'
p216
S'<pydal.adapters.sqlite.SQLiteAdapter object>'
p217
sS'ret'
p218
g122
sS'command'
p219
S"'ALTER TABLE embarcado ADD id_grupo INTEGER REFER...S grupo (id) ON DELETE CASCADE  NOT NULL  UNIQUE;'"
p220
sS'self.get_cursor'
p221
S'<bound method SQLiteAdapter.get_cursor of <pydal.adapters.sqlite.SQLiteAdapter object>>'
p222
sS').execute'
p223
g122
ssg74
I1379
sg75
(dp224
I1376
S"            self.db.logger.debug('SQL: %s' % command)"
p225
sI1377
S'        self.db._lastsql = command'
p226
sI1378
S'        t0 = time.time()'
p227
sI1379
S'        ret = self.get_cursor().execute(command, *a[1:], **b)'
p228
sI1380
S'        self.db._timings.append((command,time.time()-t0))'
p229
sI1381
S'        del self.db._timings[:-TIMINGSSIZE]'
p230
sI1382
S'        return ret'
p231
sI1383
S''
sI1374
S'            command = self.filter_sql_command(command)'
p232
sI1375
S'        if self.db._debug:'
p233
ssg87
S"(self=<pydal.adapters.sqlite.SQLiteAdapter object>, *a=('ALTER TABLE embarcado ADD id_grupo INTEGER REFER...S grupo (id) ON DELETE CASCADE  NOT NULL  UNIQUE;',), **b={})"
p234
sg89
S'log_execute'
p235
sasS'pyver'
p236
S'Python 2.7.11: C:\\Python27\\python.exe (prefix: C:\\Python27)'
p237
sS'session'
p238
g61
(S's\x0c\n\x00\x00<div><table><tr><td style="font-weight:bold;vertical-align:top;">auth</td><td style="vertical-align:top;">:</td><td><div><table><tr><td style="font-weight:bold;vertical-align:top;">expiration</td><td style="vertical-align:top;">:</td><td><div>2592000</div></td></tr><tr><td style="font-weight:bold;vertical-align:top;">hmac_key</td><td style="vertical-align:top;">:</td><td><div>9090f8e4-27eb-4319-a8b7-753e1ef19011</div></td></tr><tr><td style="font-weight:bold;vertical-align:top;">last_visit</td><td style="vertical-align:top;">:</td><td><div>datetime.datetime(2016, 2, 28, 15, 5, 19, 221000)</div></td></tr><tr><td style="font-weight:bold;vertical-align:top;">remember_me</td><td style="vertical-align:top;">:</td><td><div>True</div></td></tr><tr><td style="font-weight:bold;vertical-align:top;">user</td><td style="vertical-align:top;">:</td><td><div><table><tr><td style="font-weight:bold;vertical-align:top;">email</td><td style="vertical-align:top;">:</td><td><div>mar_ads@live.com</div></td></tr><tr><td style="font-weight:bold;vertical-align:top;">first_name</td><td style="vertical-align:top;">:</td><td><div>Marcos</div></td></tr><tr><td style="font-weight:bold;vertical-align:top;">id</td><td style="vertical-align:top;">:</td><td><div>1L</div></td></tr><tr><td style="font-weight:bold;vertical-align:top;">last_name</td><td style="vertical-align:top;">:</td><td><div>Oliveira</div></td></tr><tr><td style="font-weight:bold;vertical-align:top;">registration_id</td><td style="vertical-align:top;">:</td><td><div></div></td></tr><tr><td style="font-weight:bold;vertical-align:top;">registration_key</td><td style="vertical-align:top;">:</td><td><div></div></td></tr><tr><td style="font-weight:bold;vertical-align:top;">reset_password_key</td><td style="vertical-align:top;">:</td><td><div></div></td></tr></table></div></td></tr><tr><td style="font-weight:bold;vertical-align:top;">user_groups</td><td style="vertical-align:top;">:</td><td><div><table><tr><td style="font-weight:bold;vertical-align:top;">1</td><td style="vertical-align:top;">:</td><td><div>user_1</div></td></tr></table></div></td></tr></table></div></td></tr><tr><td style="font-weight:bold;vertical-align:top;">flash</td><td style="vertical-align:top;">:</td><td><div>None</div></td></tr><tr><td style="font-weight:bold;vertical-align:top;">last_orderby</td><td style="vertical-align:top;">:</td><td><div>None</div></td></tr><tr><td style="font-weight:bold;vertical-align:top;">last_query</td><td style="vertical-align:top;">:</td><td><div>db.embarcado.id&gt;0</div></td></tr></table></div>'
tRp239
sS'etype'
p240
S"<class 'sqlite3.OperationalError'>"
p241
sS'date'
p242
S'Mon Feb 29 23:11:00 2016'
p243
sS'response'
p244
g61
(S's\x03\x18\x00\x00<div><table><tr><td style="font-weight:bold;vertical-align:top;">body</td><td style="vertical-align:top;">:</td><td><div>&lt;cStringIO.StringO object at 0x07788B20&gt;</div></td></tr><tr><td style="font-weight:bold;vertical-align:top;">cookies</td><td style="vertical-align:top;">:</td><td><div><table><tr><td style="font-weight:bold;vertical-align:top;">session_id_arduino</td><td style="vertical-align:top;">:</td><td><div>127.0.0.1-19f47e0f-a189-46ed-9e7f-171ac7d1aed5<table><tr><td style="font-weight:bold;vertical-align:top;">comment</td><td style="vertical-align:top;">:</td><td><div></div></td></tr><tr><td style="font-weight:bold;vertical-align:top;">domain</td><td style="vertical-align:top;">:</td><td><div></div></td></tr><tr><td style="font-weight:bold;vertical-align:top;">expires</td><td style="vertical-align:top;">:</td><td><div></div></td></tr><tr><td style="font-weight:bold;vertical-align:top;">httponly</td><td style="vertical-align:top;">:</td><td><div></div></td></tr><tr><td style="font-weight:bold;vertical-align:top;">max-age</td><td style="vertical-align:top;">:</td><td><div></div></td></tr><tr><td style="font-weight:bold;vertical-align:top;">path</td><td style="vertical-align:top;">:</td><td><div>/</div></td></tr><tr><td style="font-weight:bold;vertical-align:top;">secure</td><td style="vertical-align:top;">:</td><td><div></div></td></tr><tr><td style="font-weight:bold;vertical-align:top;">version</td><td style="vertical-align:top;">:</td><td><div></div></td></tr></table></div></td></tr></table></div></td></tr><tr><td style="font-weight:bold;vertical-align:top;">delimiters</td><td style="vertical-align:top;">:</td><td><div><table><tr><td><div>{{</div></td></tr><tr><td><div>}}</div></td></tr></table></div></td></tr><tr><td style="font-weight:bold;vertical-align:top;">files</td><td style="vertical-align:top;">:</td><td><div><table></table></div></td></tr><tr><td style="font-weight:bold;vertical-align:top;">flash</td><td style="vertical-align:top;">:</td><td><div></div></td></tr><tr><td style="font-weight:bold;vertical-align:top;">form_label_separator</td><td style="vertical-align:top;">:</td><td><div>: </div></td></tr><tr><td style="font-weight:bold;vertical-align:top;">formstyle</td><td style="vertical-align:top;">:</td><td><div>table3cols</div></td></tr><tr><td style="font-weight:bold;vertical-align:top;">generic_patterns</td><td style="vertical-align:top;">:</td><td><div><table><tr><td><div>*</div></td></tr></table></div></td></tr><tr><td style="font-weight:bold;vertical-align:top;">headers</td><td style="vertical-align:top;">:</td><td><div><table><tr><td style="font-weight:bold;vertical-align:top;">X-Powered-By</td><td style="vertical-align:top;">:</td><td><div>web2py</div></td></tr></table></div></td></tr><tr><td style="font-weight:bold;vertical-align:top;">menu</td><td style="vertical-align:top;">:</td><td><div><table></table></div></td></tr><tr><td style="font-weight:bold;vertical-align:top;">meta</td><td style="vertical-align:top;">:</td><td><div><table></table></div></td></tr><tr><td style="font-weight:bold;vertical-align:top;">models_to_run</td><td style="vertical-align:top;">:</td><td><div><table><tr><td><div>^\\w+\\.py$</div></td></tr><tr><td><div>^dispositivo/\\w+\\.py$</div></td></tr><tr><td><div>^dispositivo/adicionar/\\w+\\.py$</div></td></tr></table></div></td></tr><tr><td style="font-weight:bold;vertical-align:top;">postprocessing</td><td style="vertical-align:top;">:</td><td><div><table></table></div></td></tr><tr><td style="font-weight:bold;vertical-align:top;">session_client</td><td style="vertical-align:top;">:</td><td><div>127.0.0.1</div></td></tr><tr><td style="font-weight:bold;vertical-align:top;">session_cookie_compression_level</td><td style="vertical-align:top;">:</td><td><div>None</div></td></tr><tr><td style="font-weight:bold;vertical-align:top;">session_cookie_expires</td><td style="vertical-align:top;">:</td><td><div>2592000</div></td></tr><tr><td style="font-weight:bold;vertical-align:top;">session_cookie_key</td><td style="vertical-align:top;">:</td><td><div>None</div></td></tr><tr><td style="font-weight:bold;vertical-align:top;">session_data_name</td><td style="vertical-align:top;">:</td><td><div>session_data_arduino</div></td></tr><tr><td style="font-weight:bold;vertical-align:top;">session_file</td><td style="vertical-align:top;">:</td><td><div>&lt;open file &#x27;C:\\\\Python27\\\\web2py\\\\applications\\\\Arduino\\\\sessions\\\\162\\\\119\\\\127.0.0.1-19f47e0f-a189-46ed-9e7f-171ac7d1aed5&#x27;, mode &#x27;rb+&#x27; at 0x0754A128&gt;</div></td></tr><tr><td style="font-weight:bold;vertical-align:top;">session_filename</td><td style="vertical-align:top;">:</td><td><div>C:\\Python27\\web2py\\applications\\Arduino\\sessions\\127.0.0.1-19f47e0f-a189-46ed-9e7f-171ac7d1aed5</div></td></tr><tr><td style="font-weight:bold;vertical-align:top;">session_hash</td><td style="vertical-align:top;">:</td><td><div>8b67a7956f263f41bcd6433aa31fc111</div></td></tr><tr><td style="font-weight:bold;vertical-align:top;">session_id</td><td style="vertical-align:top;">:</td><td><div>127.0.0.1-19f47e0f-a189-46ed-9e7f-171ac7d1aed5</div></td></tr><tr><td style="font-weight:bold;vertical-align:top;">session_id_name</td><td style="vertical-align:top;">:</td><td><div>session_id_arduino</div></td></tr><tr><td style="font-weight:bold;vertical-align:top;">session_locked</td><td style="vertical-align:top;">:</td><td><div>True</div></td></tr><tr><td style="font-weight:bold;vertical-align:top;">session_masterapp</td><td style="vertical-align:top;">:</td><td><div>Arduino</div></td></tr><tr><td style="font-weight:bold;vertical-align:top;">session_new</td><td style="vertical-align:top;">:</td><td><div>False</div></td></tr><tr><td style="font-weight:bold;vertical-align:top;">session_storage_type</td><td style="vertical-align:top;">:</td><td><div>file</div></td></tr><tr><td style="font-weight:bold;vertical-align:top;">status</td><td style="vertical-align:top;">:</td><td><div>200</div></td></tr><tr><td style="font-weight:bold;vertical-align:top;">view</td><td style="vertical-align:top;">:</td><td><div>dispositivo/adicionar.html</div></td></tr></table></div>'
tRp245
sS'locals'
p246
(dp247
S'a'
S"('ALTER TABLE embarcado ADD id_grupo INTEGER REFER...S grupo (id) ON DELETE CASCADE  NOT NULL  UNIQUE;',)"
p248
sS'self'
p249
S'<pydal.adapters.sqlite.SQLiteAdapter object>'
p250
sS'b'
g21
sS'command'
p251
S"'ALTER TABLE embarcado ADD id_grupo INTEGER REFER...S grupo (id) ON DELETE CASCADE  NOT NULL  UNIQUE;'"
p252
sS't0'
p253
S'1456798260.762'
p254
sssS'traceback'
p255
S'Traceback (most recent call last):\n  File "C:\\Python27\\web2py\\gluon\\restricted.py", line 227, in restricted\n    exec ccode in environment\n  File "C:\\Python27\\web2py\\applications\\Arduino\\models\\db.py", line 64, in <module>\n    auth.signature\n  File "C:\\Python27\\web2py\\gluon\\packages\\dal\\pydal\\base.py", line 834, in define_table\n    table = self.lazy_define_table(tablename,*fields,**args)\n  File "C:\\Python27\\web2py\\gluon\\packages\\dal\\pydal\\base.py", line 873, in lazy_define_table\n    polymodel=polymodel)\n  File "C:\\Python27\\web2py\\gluon\\packages\\dal\\pydal\\adapters\\base.py", line 510, in create_table\n    fake_migrate=fake_migrate\n  File "C:\\Python27\\web2py\\gluon\\packages\\dal\\pydal\\adapters\\base.py", line 623, in migrate_table\n    self.execute(sub_query)\n  File "C:\\Python27\\web2py\\gluon\\packages\\dal\\pydal\\adapters\\base.py", line 1385, in execute\n    return self.log_execute(*a, **b)\n  File "C:\\Python27\\web2py\\gluon\\packages\\dal\\pydal\\adapters\\base.py", line 1379, in log_execute\n    ret = self.get_cursor().execute(command, *a[1:], **b)\nOperationalError: Cannot add a UNIQUE column\n'
p256
s.