(dp1
S'output'
p2
S"<type 'exceptions.NameError'> global name 'Incons' is not defined"
p3
sS'layer'
p4
S'C:\\Python27\\web2py\\applications\\Arduino\\controllers/icons.py'
p5
sS'code'
p6
S'# -*- coding: utf-8 -*-\n\n\n@auth.requires_login()\ndef index():\n\n    list_str = """ \n        <tr class="odd gradeX">\n            <td>%(nome)s</td>\n            <td>%(icon)s</td>\n            <td><a href="%(edt)s" class="btn btn-primary btn-xs fa fa-pencil" >\n\n                </a>\n                <a href="%(delt)s" class="btn btn-primary btn-xs fa fa-trash-o" >\n\n                </a>\n\n            </td>\n\n        </tr>\n    """\n    resp = db(Incons).select(orderby=~Incons.id)\n    lista = [list_str % dict(nome=linha.nome,\n                             icon=linha.icon,\n                             edt=URL(\'icons\', \'editar\', args=linha.id),\n                             delt=URL(\'icons\', \'desativar\'),\n                             )for linha in resp]\n    return dict(lista=lista)\n\n\n@auth.requires_login()\ndef adicionar():\n    form = SQLFORM(Incons, formstyle=\'divs\')\n    if form.process().accepted:\n        response.flash = \'Sucesso!\'\n        redirect(URL(\'index\'))\n    elif form.errors:\n        response.flash = \'Erros!\'\n    else:\n        response.flash = \'Preencha os dados\'\n    return dict(form=form)\n\n\n@auth.requires_login()\ndef editar():\n    if request.args(0):\n        record = Incons(request.args(0)) or redirect(URL(\'index\'))\n        form = SQLFORM(Incons, record, formstyle=\'divs\')\n    if form.process().accepted:\n        redirect(URL(\'index\'))\n        response.flash = \'Sucesso!\'\n    elif form.errors:\n        response.flash = \'Erros!\'\n    else:\n        response.flash = \'Preencha os dados\'\n    response.view = \'icons/adicionar.html\'\n    return dict(form=form)\n\nresponse._vars=response._caller(index)\n'
p7
sS'snapshot'
p8
(dp9
sS'traceback'
p10
S'Traceback (most recent call last):\n  File "C:\\Python27\\web2py\\gluon\\restricted.py", line 227, in restricted\n    exec ccode in environment\n  File "C:\\Python27\\web2py\\applications\\Arduino\\controllers/icons.py", line 59, in <module>\n  File "C:\\Python27\\web2py\\gluon\\globals.py", line 422, in <lambda>\n    self._caller = lambda f: f()\n  File "C:\\Python27\\web2py\\gluon\\tools.py", line 4228, in f\n    return action(*a, **b)\n  File "C:\\Python27\\web2py\\applications\\Arduino\\controllers/icons.py", line 22, in index\n    resp = db(Incons).select(orderby=~Incons.id)\nNameError: global name \'Incons\' is not defined\n'
p11
s.