(dp1
S'output'
p2
S"<type 'exceptions.UnboundLocalError'> local variable 'lista' referenced before assignment"
p3
sS'layer'
p4
S'C:\\Python27\\web2py\\applications\\Arduino\\controllers/usuario.py'
p5
sS'code'
p6
S'# -*- coding: utf-8 -*-\n\ndef index():\n\n\tlist_str = """ \n\t\t<tr class="odd gradeX">\n            <td>%(id)</td>\n            <td>%(nome)</td>\n            <td>%(sobrenome)</td>\n            <td>%(email)</td>\n            <td><a href="%(edt)" class="btn btn-primary btn-xs fa fa-pencil" >\n\n                </a>\n                <a href="%(delt)" class="btn btn-primary btn-xs fa fa-trash-o" >\n\n                </a>\n\n            </td>\n\n        </tr>\n\t"""\n\tresp = db(db.auth_user).select(orderby=~db.auth_user.id)\n\tfor lin in resp:\n\t\tlista += [list_str % dict(id=lin.id,\\\n\t\tnome=lin.first_name,\\\n\t\tsobrenome=lin.last_name,\\\n\t\temail=lin.email,\\\n\t\tedt=URL(\'usuario\',\'editar\'),\\\n\t\tdelt=URL(\'usuario\',\'desativar\'),\\\n\t\t)]\n\treturn dict(lista=lista)\n\n\n\n\ndef adicionar():\n\tform = SQLFORM(db.auth_user, formstyle=\'divs\')\n\tif form.process().accepted:\n\t\tpass\n\treturn dict(form=form)\n\n\ndef editar():\n\tform = SQLFORM(db.auth_user, formstyle=\'divs\')\n\tif form.process().accepted:\n\t\tpass\n\treturn dict(form=form)\nresponse._vars=response._caller(index)\n'
p7
sS'snapshot'
p8
(dp9
sS'traceback'
p10
S'Traceback (most recent call last):\n  File "C:\\Python27\\web2py\\gluon\\restricted.py", line 227, in restricted\n    exec ccode in environment\n  File "C:\\Python27\\web2py\\applications\\Arduino\\controllers/usuario.py", line 48, in <module>\n  File "C:\\Python27\\web2py\\gluon\\globals.py", line 422, in <lambda>\n    self._caller = lambda f: f()\n  File "C:\\Python27\\web2py\\applications\\Arduino\\controllers/usuario.py", line 24, in index\n    lista += [list_str % dict(id=lin.id,\\\nUnboundLocalError: local variable \'lista\' referenced before assignment\n'
p11
s.